target datalayout = "e-m:e-p270:32:32-p271:32:32-p272:64:64-i64:64-i128:128-f80:128-n8:16:32:64-S128"
target triple = "x86_64-pc-linux-gnu"

%"class.boost::urls::pct_string_view" = type { %"class.boost::urls::grammar::string_view_base", i64 }
%"class.boost::urls::grammar::string_view_base" = type { %"class.boost::core::basic_string_view" }
%"class.boost::core::basic_string_view" = type { ptr, i64 }
%"class.boost::urls::detail::path_ref" = type { ptr, ptr, i64, i64, i64 }
%"class.boost::urls::segments_base" = type { %"class.boost::urls::detail::path_ref" }

; Function Attrs: mustprogress nounwind uwtable
define linkonce_odr hidden noundef nonnull align 1 dereferenceable(1) ptr @_ZNK5boost4core17basic_string_viewIcE5frontEv(ptr noundef nonnull align 8 dereferenceable(16) %0) #2 comdat align 2 {
  %2 = alloca ptr, align 8
  store ptr %0, ptr %2, align 8, !tbaa !3
  %3 = load ptr, ptr %2, align 8
  %4 = getelementptr inbounds nuw %"class.boost::core::basic_string_view", ptr %3, i32 0, i32 0
  %5 = load ptr, ptr %4, align 8, !tbaa !26
  %6 = getelementptr inbounds i8, ptr %5, i64 0
  ret ptr %6
}

; Function Attrs: mustprogress nounwind uwtable
define linkonce_odr hidden noundef zeroext i1 @_ZNK5boost4core17basic_string_viewIcE5emptyEv(ptr noundef nonnull align 8 dereferenceable(16) %0) #2 comdat align 2 {
  %2 = alloca ptr, align 8
  store ptr %0, ptr %2, align 8, !tbaa !3
  %3 = load ptr, ptr %2, align 8
  %4 = getelementptr inbounds nuw %"class.boost::core::basic_string_view", ptr %3, i32 0, i32 1
  %5 = load i64, ptr %4, align 8, !tbaa !24
  %6 = icmp eq i64 %5, 0
  ret i1 %6
}

; Function Attrs: mustprogress nounwind uwtable
define linkonce_odr hidden noundef zeroext i1 @_ZNK5boost4core17basic_string_viewIcE11starts_withEc(ptr noundef nonnull align 8 dereferenceable(16) %0, i8 noundef signext %1) #2 comdat align 2 {
  %3 = alloca ptr, align 8
  %4 = alloca i8, align 1
  store ptr %0, ptr %3, align 8, !tbaa !3
  store i8 %1, ptr %4, align 1, !tbaa !16
  %5 = load ptr, ptr %3, align 8
  %6 = call noundef zeroext i1 @_ZNK5boost4core17basic_string_viewIcE5emptyEv(ptr noundef nonnull align 8 dereferenceable(16) %5) #12
  br i1 %6, label %14, label %7

7:                                                ; preds = %2
  %8 = call noundef nonnull align 1 dereferenceable(1) ptr @_ZNK5boost4core17basic_string_viewIcE5frontEv(ptr noundef nonnull align 8 dereferenceable(16) %5) #12
  %9 = load i8, ptr %8, align 1, !tbaa !16
  %10 = sext i8 %9 to i32
  %11 = load i8, ptr %4, align 1, !tbaa !16
  %12 = sext i8 %11 to i32
  %13 = icmp eq i32 %10, %12
  br label %14

14:                                               ; preds = %7, %2
  %15 = phi i1 [ false, %2 ], [ %13, %7 ]
  ret i1 %15
}

; Function Attrs: mustprogress nounwind uwtable
define linkonce_odr hidden noundef zeroext i1 @_ZNK5boost4urls7grammar16string_view_base11starts_withEc(ptr noundef nonnull align 8 dereferenceable(16) %0, i8 noundef signext %1) #2 comdat align 2 {
  %3 = alloca ptr, align 8
  %4 = alloca i8, align 1
  store ptr %0, ptr %3, align 8, !tbaa !3
  store i8 %1, ptr %4, align 1, !tbaa !16
  %5 = load ptr, ptr %3, align 8
  %6 = getelementptr inbounds nuw %"class.boost::urls::grammar::string_view_base", ptr %5, i32 0, i32 0
  %7 = load i8, ptr %4, align 1, !tbaa !16
  %8 = call noundef zeroext i1 @_ZNK5boost4core17basic_string_viewIcE11starts_withEc(ptr noundef nonnull align 8 dereferenceable(16) %6, i8 noundef signext %7) #12
  ret i1 %8
}

; Function Attrs: mustprogress nounwind uwtable
define noundef zeroext i1 @_ZNK5boost4urls13segments_base11is_absoluteEv(ptr noundef nonnull align 8 dereferenceable(40) %0) #2 align 2 {
  %2 = alloca ptr, align 8
  %3 = alloca %"class.boost::urls::pct_string_view", align 8
  store ptr %0, ptr %2, align 8, !tbaa !3
  %4 = load ptr, ptr %2, align 8
  call void @llvm.lifetime.start.p0(i64 24, ptr %3) #12
  %5 = getelementptr inbounds nuw %"class.boost::urls::segments_base", ptr %4, i32 0, i32 0
  call void @_ZNK5boost4urls6detail8path_ref6bufferEv(ptr dead_on_unwind writable sret(%"class.boost::urls::pct_string_view") align 8 %3, ptr noundef nonnull align 8 dereferenceable(40) %5) #12
  %6 = call noundef zeroext i1 @_ZNK5boost4urls7grammar16string_view_base11starts_withEc(ptr noundef nonnull align 8 dereferenceable(16) %3, i8 noundef signext 47) #12
  call void @llvm.lifetime.end.p0(i64 24, ptr %3) #12
  ret i1 %6
}