; Function Attrs: mustprogress nounwind uwtable
define noundef zeroext i1 @_ZNK5boost4urls13segments_base11is_absoluteEv(ptr noundef nonnull align 8 dereferenceable(40) %0) local_unnamed_addr #6 align 2 {
  %2 = alloca %"class.boost::urls::pct_string_view", align 8
  call void @llvm.lifetime.start.p0(i64 24, ptr nonnull %2) #12
  call void @_ZNK5boost4urls6detail8path_ref6bufferEv(ptr dead_on_unwind nonnull writable sret(%"class.boost::urls::pct_string_view") align 8 %2, ptr noundef nonnull align 8 dereferenceable(40) %0) #12
  %3 = getelementptr inbounds nuw i8, ptr %2, i64 8
  %4 = load i64, ptr %3, align 8, !tbaa !25
  %5 = icmp eq i64 %4, 0
  br i1 %5, label %_ZNK5boost4urls7grammar16string_view_base11starts_withEc.exit, label %6

6:                                                ; preds = %1
  %7 = load ptr, ptr %2, align 8, !tbaa !27
  %8 = load i8, ptr %7, align 1, !tbaa !24
  %9 = icmp eq i8 %8, 47
  br label %_ZNK5boost4urls7grammar16string_view_base11starts_withEc.exit

_ZNK5boost4urls7grammar16string_view_base11starts_withEc.exit: ; preds = %1, %6
  %10 = phi i1 [ false, %1 ], [ %9, %6 ]
  call void @llvm.lifetime.end.p0(i64 24, ptr nonnull %2) #12
  ret i1 %10
}